target datalayout = "e-m:e-p270:32:32-p271:32:32-p272:64:64-i64:64-i128:128-f80:128-n8:16:32:64-S128"
target triple = "x86_64-pc-linux-gnu"

; Function Attrs: mustprogress nounwind uwtable
define hidden noundef zeroext i1 @_Z32validate_form_string_for_numbersPKc(ptr noundef %0) #0 {
  %2 = alloca ptr, align 8
  %3 = alloca i8, align 1
  %4 = alloca i64, align 8
  %5 = alloca i32, align 4
  %6 = alloca i32, align 4
  store ptr %0, ptr %2, align 8, !tbaa !4
  call void @llvm.lifetime.start.p0(i64 1, ptr %3) #5
  store i8 1, ptr %3, align 1, !tbaa !9
  %7 = load ptr, ptr %2, align 8, !tbaa !4
  %8 = getelementptr inbounds i8, ptr %7, i64 0
  %9 = load i8, ptr %8, align 1, !tbaa !11
  %10 = sext i8 %9 to i32
  %11 = icmp ne i32 %10, 37
  br i1 %11, label %12, label %13

12:                                               ; preds = %1
  store i8 0, ptr %3, align 1, !tbaa !9
  br label %116

13:                                               ; preds = %1
  call void @llvm.lifetime.start.p0(i64 8, ptr %4) #5
  %14 = load ptr, ptr %2, align 8, !tbaa !4
  %15 = call i64 @strlen(ptr noundef %14) #6
  store i64 %15, ptr %4, align 8, !tbaa !12
  call void @llvm.lifetime.start.p0(i64 4, ptr %5) #5
  store i32 1, ptr %5, align 4, !tbaa !14
  br label %16

16:                                               ; preds = %57, %13
  %17 = load i32, ptr %5, align 4, !tbaa !14
  %18 = load i64, ptr %4, align 8, !tbaa !12
  %19 = trunc i64 %18 to i32
  %20 = sub nsw i32 %19, 1
  %21 = icmp slt i32 %17, %20
  br i1 %21, label %23, label %22

22:                                               ; preds = %16
  store i32 2, ptr %6, align 4
  br label %60

23:                                               ; preds = %16
  %24 = load ptr, ptr %2, align 8, !tbaa !4
  %25 = load i32, ptr %5, align 4, !tbaa !14
  %26 = sext i32 %25 to i64
  %27 = getelementptr inbounds i8, ptr %24, i64 %26
  %28 = load i8, ptr %27, align 1, !tbaa !11
  %29 = sext i8 %28 to i32
  %30 = icmp eq i32 %29, 46
  br i1 %30, label %56, label %31

31:                                               ; preds = %23
  %32 = load ptr, ptr %2, align 8, !tbaa !4
  %33 = load i32, ptr %5, align 4, !tbaa !14
  %34 = sext i32 %33 to i64
  %35 = getelementptr inbounds i8, ptr %32, i64 %34
  %36 = load i8, ptr %35, align 1, !tbaa !11
  %37 = sext i8 %36 to i32
  %38 = icmp eq i32 %37, 43
  br i1 %38, label %56, label %39

39:                                               ; preds = %31
  %40 = load ptr, ptr %2, align 8, !tbaa !4
  %41 = load i32, ptr %5, align 4, !tbaa !14
  %42 = sext i32 %41 to i64
  %43 = getelementptr inbounds i8, ptr %40, i64 %42
  %44 = load i8, ptr %43, align 1, !tbaa !11
  %45 = sext i8 %44 to i32
  %46 = icmp sge i32 %45, 48
  br i1 %46, label %47, label %55

47:                                               ; preds = %39
  %48 = load ptr, ptr %2, align 8, !tbaa !4
  %49 = load i32, ptr %5, align 4, !tbaa !14
  %50 = sext i32 %49 to i64
  %51 = getelementptr inbounds i8, ptr %48, i64 %50
  %52 = load i8, ptr %51, align 1, !tbaa !11
  %53 = sext i8 %52 to i32
  %54 = icmp sle i32 %53, 57
  br i1 %54, label %56, label %55

55:                                               ; preds = %47, %39
  store i8 0, ptr %3, align 1, !tbaa !9
  store i32 2, ptr %6, align 4
  br label %60

56:                                               ; preds = %47, %31, %23
  br label %57

57:                                               ; preds = %56
  %58 = load i32, ptr %5, align 4, !tbaa !14
  %59 = add nsw i32 %58, 1
  store i32 %59, ptr %5, align 4, !tbaa !14
  br label %16, !llvm.loop !16

60:                                               ; preds = %55, %22
  call void @llvm.lifetime.end.p0(i64 4, ptr %5) #5
  br label %61

61:                                               ; preds = %60
  %62 = load i8, ptr %3, align 1, !tbaa !9, !range !18, !noundef !19
  %63 = trunc i8 %62 to i1
  br i1 %63, label %64, label %115

64:                                               ; preds = %61
  %65 = load ptr, ptr %2, align 8, !tbaa !4
  %66 = load i64, ptr %4, align 8, !tbaa !12
  %67 = sub i64 %66, 1
  %68 = getelementptr inbounds nuw i8, ptr %65, i64 %67
  %69 = load i8, ptr %68, align 1, !tbaa !11
  %70 = sext i8 %69 to i32
  %71 = icmp eq i32 %70, 101
  br i1 %71, label %112, label %72

72:                                               ; preds = %64
  %73 = load ptr, ptr %2, align 8, !tbaa !4
  %74 = load i64, ptr %4, align 8, !tbaa !12
  %75 = sub i64 %74, 1
  %76 = getelementptr inbounds nuw i8, ptr %73, i64 %75
  %77 = load i8, ptr %76, align 1, !tbaa !11
  %78 = sext i8 %77 to i32
  %79 = icmp eq i32 %78, 69
  br i1 %79, label %112, label %80

80:                                               ; preds = %72
  %81 = load ptr, ptr %2, align 8, !tbaa !4
  %82 = load i64, ptr %4, align 8, !tbaa !12
  %83 = sub i64 %82, 1
  %84 = getelementptr inbounds nuw i8, ptr %81, i64 %83
  %85 = load i8, ptr %84, align 1, !tbaa !11
  %86 = sext i8 %85 to i32
  %87 = icmp eq i32 %86, 102
  br i1 %87, label %112, label %88

88:                                               ; preds = %80
  %89 = load ptr, ptr %2, align 8, !tbaa !4
  %90 = load i64, ptr %4, align 8, !tbaa !12
  %91 = sub i64 %90, 1
  %92 = getelementptr inbounds nuw i8, ptr %89, i64 %91
  %93 = load i8, ptr %92, align 1, !tbaa !11
  %94 = sext i8 %93 to i32
  %95 = icmp eq i32 %94, 70
  br i1 %95, label %112, label %96

96:                                               ; preds = %88
  %97 = load ptr, ptr %2, align 8, !tbaa !4
  %98 = load i64, ptr %4, align 8, !tbaa !12
  %99 = sub i64 %98, 1
  %100 = getelementptr inbounds nuw i8, ptr %97, i64 %99
  %101 = load i8, ptr %100, align 1, !tbaa !11
  %102 = sext i8 %101 to i32
  %103 = icmp eq i32 %102, 103
  br i1 %103, label %112, label %104

104:                                              ; preds = %96
  %105 = load ptr, ptr %2, align 8, !tbaa !4
  %106 = load i64, ptr %4, align 8, !tbaa !12
  %107 = sub i64 %106, 1
  %108 = getelementptr inbounds nuw i8, ptr %105, i64 %107
  %109 = load i8, ptr %108, align 1, !tbaa !11
  %110 = sext i8 %109 to i32
  %111 = icmp eq i32 %110, 71
  br label %112

112:                                              ; preds = %104, %96, %88, %80, %72, %64
  %113 = phi i1 [ true, %96 ], [ true, %88 ], [ true, %80 ], [ true, %72 ], [ true, %64 ], [ %111, %104 ]
  %114 = zext i1 %113 to i8
  store i8 %114, ptr %3, align 1, !tbaa !9
  br label %115

115:                                              ; preds = %112, %61
  call void @llvm.lifetime.end.p0(i64 8, ptr %4) #5
  br label %116

116:                                              ; preds = %115, %12
  %117 = load i8, ptr %3, align 1, !tbaa !9, !range !18, !noundef !19
  %118 = trunc i8 %117 to i1
  store i32 1, ptr %6, align 4
  call void @llvm.lifetime.end.p0(i64 1, ptr %3) #5
  ret i1 %118
}