; Function Attrs: mustprogress nofree nounwind willreturn memory(argmem: read) uwtable
define hidden noundef zeroext i1 @_Z32validate_form_string_for_numbersPKc(ptr noundef readonly captures(none) %0) local_unnamed_addr #0 {
  %2 = load i8, ptr %0, align 1, !tbaa !4
  %.not = icmp eq i8 %2, 37
  br i1 %.not, label %3, label %switch.edge

3:                                                ; preds = %1
  %4 = tail call i64 @strlen(ptr noundef nonnull dereferenceable(1) %0) #4
  %5 = trunc i64 %4 to i32
  %6 = icmp sgt i32 %5, 2
  br i1 %6, label %.lr.ph.preheader, label %._crit_edge

.lr.ph.preheader:                                 ; preds = %3
  %7 = add i64 %4, 4294967295
  %wide.trip.count = and i64 %7, 4294967295
  br label %.lr.ph

.lr.ph:                                           ; preds = %.lr.ph.preheader, %12
  %indvars.iv = phi i64 [ 1, %.lr.ph.preheader ], [ %indvars.iv.next, %12 ]
  %8 = getelementptr inbounds nuw i8, ptr %0, i64 %indvars.iv
  %9 = load i8, ptr %8, align 1, !tbaa !4
  switch i8 %9, label %10 [
    i8 46, label %12
    i8 43, label %12
  ]

10:                                               ; preds = %.lr.ph
  %11 = add i8 %9, -48
  %or.cond = icmp ult i8 %11, 10
  br i1 %or.cond, label %12, label %switch.edge

12:                                               ; preds = %10, %.lr.ph, %.lr.ph
  %indvars.iv.next = add nuw nsw i64 %indvars.iv, 1
  %exitcond.not = icmp eq i64 %indvars.iv.next, %wide.trip.count
  br i1 %exitcond.not, label %._crit_edge, label %.lr.ph, !llvm.loop !7

._crit_edge:                                      ; preds = %12, %3
  %13 = getelementptr i8, ptr %0, i64 %4
  %14 = getelementptr i8, ptr %13, i64 -1
  %15 = load i8, ptr %14, align 1, !tbaa !4
  %switch.tableidx = add i8 %15, -69
  %16 = icmp ult i8 %switch.tableidx, 35
  br i1 %16, label %switch.lookup, label %switch.edge

switch.lookup:                                    ; preds = %._crit_edge
  %switch.cast = zext nneg i8 %switch.tableidx to i35
  %switch.downshift = lshr i35 -4294967289, %switch.cast
  %switch.masked = trunc i35 %switch.downshift to i1
  br label %switch.edge

switch.edge:                                      ; preds = %10, %._crit_edge, %switch.lookup, %1
  %.026 = phi i1 [ false, %1 ], [ %switch.masked, %switch.lookup ], [ false, %._crit_edge ], [ false, %10 ]
  ret i1 %.026
}